; Function Attrs: mustprogress nounwind uwtable
define dso_local noundef ptr @_ZNK4llvm11GEPOperator20getSourceElementTypeEv(ptr noundef nonnull align 8 dereferenceable(24) %0) local_unnamed_addr #0 align 2 {
  %2 = load i8, ptr %0, align 8
  %.not = icmp eq i8 %2, 63
  br i1 %.not, label %3, label %6

3:                                                ; preds = %1
  %4 = getelementptr inbounds nuw i8, ptr %0, i64 72
  %5 = load ptr, ptr %4, align 8
  br label %8

6:                                                ; preds = %1
  %7 = tail call noundef ptr @_ZNK4llvm25GetElementPtrConstantExpr20getSourceElementTypeEv(ptr noundef nonnull align 8 dereferenceable(80) %0) #9
  br label %8

8:                                                ; preds = %6, %3
  %.0 = phi ptr [ %5, %3 ], [ %7, %6 ]
  ret ptr %.0
}